target datalayout = "e-m:e-p270:32:32-p271:32:32-p272:64:64-i64:64-i128:128-f80:128-n8:16:32:64-S128"
target triple = "x86_64-pc-linux-gnu"

%"class.osgeo::proj::util::BaseObject" = type { ptr, %"class.std::unique_ptr.2" }
%"class.std::unique_ptr.2" = type { %"struct.std::__uniq_ptr_data.3" }
%"struct.std::__uniq_ptr_data.3" = type { %"class.std::__uniq_ptr_impl.4" }
%"class.std::__uniq_ptr_impl.4" = type { %"class.std::tuple.5" }
%"class.std::tuple.5" = type { %"struct.std::_Tuple_impl.6" }
%"struct.std::_Tuple_impl.6" = type { %"struct.std::_Head_base.9" }
%"struct.std::_Head_base.9" = type { ptr }
%"class.std::__shared_count" = type { ptr }
%"class.osgeo::proj::common::Measure" = type { %"class.osgeo::proj::util::BaseObject", %"class.std::unique_ptr.86" }
%"class.std::unique_ptr.86" = type { %"struct.std::__uniq_ptr_data.87" }
%"struct.std::__uniq_ptr_data.87" = type { %"class.std::__uniq_ptr_impl.88" }
%"class.std::__uniq_ptr_impl.88" = type { %"class.std::tuple.89" }
%"class.std::tuple.89" = type { %"struct.std::_Tuple_impl.90" }
%"struct.std::_Tuple_impl.90" = type { %"struct.std::_Head_base.93" }
%"struct.std::_Head_base.93" = type { ptr }
%"class.dropbox::oxygen::nn.42" = type { %"class.std::shared_ptr.43" }
%"class.std::shared_ptr.43" = type { %"class.std::__shared_ptr.44" }
%"class.std::__shared_ptr.44" = type { ptr, %"class.std::__shared_count" }
%"class.osgeo::proj::util::PropertyMap" = type { %"class.std::unique_ptr.110" }
%"class.std::unique_ptr.110" = type { %"struct.std::__uniq_ptr_data.111" }
%"struct.std::__uniq_ptr_data.111" = type { %"class.std::__uniq_ptr_impl.112" }
%"class.std::__uniq_ptr_impl.112" = type { %"class.std::tuple.113" }
%"class.std::tuple.113" = type { %"struct.std::_Tuple_impl.114" }
%"struct.std::_Tuple_impl.114" = type { %"struct.std::_Head_base.117" }
%"struct.std::_Head_base.117" = type { ptr }
%"struct.std::_Vector_base.140" = type { %"struct.std::_Vector_base<dropbox::oxygen::nn<std::shared_ptr<osgeo::proj::operation::ParameterValue>>, std::allocator<dropbox::oxygen::nn<std::shared_ptr<osgeo::proj::operation::ParameterValue>>>>::_Vector_impl" }
%"struct.std::_Vector_base<dropbox::oxygen::nn<std::shared_ptr<osgeo::proj::operation::ParameterValue>>, std::allocator<dropbox::oxygen::nn<std::shared_ptr<osgeo::proj::operation::ParameterValue>>>>::_Vector_impl" = type { %"struct.std::_Vector_base<dropbox::oxygen::nn<std::shared_ptr<osgeo::proj::operation::ParameterValue>>, std::allocator<dropbox::oxygen::nn<std::shared_ptr<osgeo::proj::operation::ParameterValue>>>>::_Vector_impl_data" }
%"struct.std::_Vector_base<dropbox::oxygen::nn<std::shared_ptr<osgeo::proj::operation::ParameterValue>>, std::allocator<dropbox::oxygen::nn<std::shared_ptr<osgeo::proj::operation::ParameterValue>>>>::_Vector_impl_data" = type { ptr, ptr, ptr }
%"struct.osgeo::proj::operation::VectorOfValues" = type { %"class.std::vector.139" }
%"class.std::vector.139" = type { %"struct.std::_Vector_base.140" }
%"class.osgeo::proj::common::Angle" = type { %"class.osgeo::proj::common::Measure" }
%"class.osgeo::proj::common::Scale" = type { %"class.osgeo::proj::common::Measure" }
%"class.osgeo::proj::common::Length" = type { %"class.osgeo::proj::common::Measure" }

@_ZTIN5osgeo4proj9operation16InvalidOperationE = external constant ptr
@.str.2 = private unnamed_addr constant [20 x i8] c"Invalid zone number\00", align 1

; Function Attrs: mustprogress uwtable
define hidden void @_ZN5osgeo4proj9operation10Conversion6createERKNS0_4util11PropertyMapEiRKSt6vectorIN7dropbox6oxygen2nnISt10shared_ptrINS1_14ParameterValueEEEESaISE_EE(ptr dead_on_unwind noalias writable sret(%"class.dropbox::oxygen::nn.42") align 8 %0, ptr noundef nonnull align 8 dereferenceable(8) %1, i32 noundef %2, ptr noundef nonnull align 8 dereferenceable(24) %3) #0 align 2 {
  %5 = alloca ptr, align 8
  %6 = alloca ptr, align 8
  %7 = alloca i32, align 4
  %8 = alloca ptr, align 8
  %9 = alloca ptr, align 8
  store ptr %0, ptr %5, align 8
  store ptr %1, ptr %6, align 8, !tbaa !57
  store i32 %2, ptr %7, align 4, !tbaa !87
  store ptr %3, ptr %8, align 8, !tbaa !74
  call void @llvm.lifetime.start.p0(i64 8, ptr %9) #24
  %10 = load i32, ptr %7, align 4, !tbaa !87
  %11 = call noundef ptr @_ZN5osgeo4proj9operation10getMappingEi(i32 noundef %10) #24
  store ptr %11, ptr %9, align 8, !tbaa !89
  %12 = load ptr, ptr %6, align 8, !tbaa !57
  %13 = load ptr, ptr %9, align 8, !tbaa !89
  %14 = load ptr, ptr %8, align 8, !tbaa !74
  call void @_ZN5osgeo4proj9operationL16createConversionERKNS0_4util11PropertyMapEPKNS1_13MethodMappingERKSt6vectorIN7dropbox6oxygen2nnISt10shared_ptrINS1_14ParameterValueEEEESaISG_EE(ptr dead_on_unwind writable sret(%"class.dropbox::oxygen::nn.42") align 8 %0, ptr noundef nonnull align 8 dereferenceable(8) %12, ptr noundef %13, ptr noundef nonnull align 8 dereferenceable(24) %14)
  call void @llvm.lifetime.end.p0(i64 8, ptr %9) #24
  ret void
}

; Function Attrs: mustprogress uwtable
define void @_ZN5osgeo4proj9operation10Conversion9createUTMERKNS0_4util11PropertyMapEib(ptr dead_on_unwind noalias writable sret(%"class.dropbox::oxygen::nn.42") align 8 %0, ptr noundef nonnull align 8 dereferenceable(8) %1, i32 noundef %2, i1 noundef zeroext %3) #0 align 2 personality ptr @__gxx_personality_v0 {
  %5 = alloca ptr, align 8
  %6 = alloca ptr, align 8
  %7 = alloca i32, align 4
  %8 = alloca i8, align 1
  %9 = alloca ptr, align 8
  %10 = alloca i32, align 4
  %11 = alloca %"class.osgeo::proj::util::PropertyMap", align 8
  %12 = alloca %"struct.osgeo::proj::operation::VectorOfValues", align 8
  %13 = alloca %"class.osgeo::proj::common::Angle", align 8
  %14 = alloca %"class.osgeo::proj::common::Angle", align 8
  %15 = alloca %"class.osgeo::proj::common::Scale", align 8
  %16 = alloca %"class.osgeo::proj::common::Length", align 8
  %17 = alloca %"class.osgeo::proj::common::Length", align 8
  store ptr %0, ptr %5, align 8
  store ptr %1, ptr %6, align 8, !tbaa !57
  store i32 %2, ptr %7, align 4, !tbaa !87
  %18 = zext i1 %3 to i8
  store i8 %18, ptr %8, align 1, !tbaa !32
  %19 = load i32, ptr %7, align 4, !tbaa !87
  %20 = icmp slt i32 %19, 1
  br i1 %20, label %24, label %21

21:                                               ; preds = %4
  %22 = load i32, ptr %7, align 4, !tbaa !87
  %23 = icmp sgt i32 %22, 60
  br i1 %23, label %24, label %31

24:                                               ; preds = %21, %4
  %25 = call ptr @__cxa_allocate_exception(i64 40) #24
  invoke void @_ZN5osgeo4proj9operation16InvalidOperationC1EPKc(ptr noundef nonnull align 8 dereferenceable(40) %25, ptr noundef @.str.2)
          to label %26 unwind label %27

26:                                               ; preds = %24
  call void @__cxa_throw(ptr %25, ptr @_ZTIN5osgeo4proj9operation16InvalidOperationE, ptr @_ZN5osgeo4proj9operation16InvalidOperationD1Ev) #28
  unreachable

27:                                               ; preds = %24
  %28 = landingpad { ptr, i32 }
          cleanup
  %29 = extractvalue { ptr, i32 } %28, 0
  store ptr %29, ptr %9, align 8
  %30 = extractvalue { ptr, i32 } %28, 1
  store i32 %30, ptr %10, align 4
  call void @__cxa_free_exception(ptr %25) #24
  br label %83

31:                                               ; preds = %21
  call void @llvm.lifetime.start.p0(i64 8, ptr %11) #24
  %32 = load ptr, ptr %6, align 8, !tbaa !57
  %33 = load i32, ptr %7, align 4, !tbaa !87
  %34 = load i8, ptr %8, align 1, !tbaa !32, !range !44, !noundef !45
  %35 = trunc i8 %34 to i1
  call void @_ZN5osgeo4proj9operationL24getUTMConversionPropertyERKNS0_4util11PropertyMapEib(ptr dead_on_unwind writable sret(%"class.osgeo::proj::util::PropertyMap") align 8 %11, ptr noundef nonnull align 8 dereferenceable(8) %32, i32 noundef %33, i1 noundef zeroext %35)
  call void @llvm.lifetime.start.p0(i64 24, ptr %12) #24
  call void @llvm.lifetime.start.p0(i64 24, ptr %13) #24
  invoke void @_ZN5osgeo4proj6common5AngleC1Ed(ptr noundef nonnull align 8 dereferenceable(24) %13, double noundef 0.000000e+00)
          to label %36 unwind label %49

36:                                               ; preds = %31
  call void @llvm.lifetime.start.p0(i64 24, ptr %14) #24
  %37 = load i32, ptr %7, align 4, !tbaa !87
  %38 = sitofp i32 %37 to double
  %39 = call double @llvm.fmuladd.f64(double %38, double 6.000000e+00, double -1.830000e+02)
  invoke void @_ZN5osgeo4proj6common5AngleC1Ed(ptr noundef nonnull align 8 dereferenceable(24) %14, double noundef %39)
          to label %40 unwind label %53

40:                                               ; preds = %36
  call void @llvm.lifetime.start.p0(i64 24, ptr %15) #24
  invoke void @_ZN5osgeo4proj6common5ScaleC1Ed(ptr noundef nonnull align 8 dereferenceable(24) %15, double noundef 9.996000e-01)
          to label %41 unwind label %57

41:                                               ; preds = %40
  call void @llvm.lifetime.start.p0(i64 24, ptr %16) #24
  invoke void @_ZN5osgeo4proj6common6LengthC1Ed(ptr noundef nonnull align 8 dereferenceable(24) %16, double noundef 5.000000e+05)
          to label %42 unwind label %61

42:                                               ; preds = %41
  call void @llvm.lifetime.start.p0(i64 24, ptr %17) #24
  %43 = load i8, ptr %8, align 1, !tbaa !32, !range !44, !noundef !45
  %44 = trunc i8 %43 to i1
  %45 = select i1 %44, double 0.000000e+00, double 1.000000e+07
  invoke void @_ZN5osgeo4proj6common6LengthC1Ed(ptr noundef nonnull align 8 dereferenceable(24) %17, double noundef %45)
          to label %46 unwind label %65

46:                                               ; preds = %42
  invoke void @_ZN5osgeo4proj9operation12createParamsERKNS0_6common7MeasureES5_S5_S5_S5_(ptr dead_on_unwind writable sret(%"struct.osgeo::proj::operation::VectorOfValues") align 8 %12, ptr noundef nonnull align 8 dereferenceable(24) %13, ptr noundef nonnull align 8 dereferenceable(24) %14, ptr noundef nonnull align 8 dereferenceable(24) %15, ptr noundef nonnull align 8 dereferenceable(24) %16, ptr noundef nonnull align 8 dereferenceable(24) %17)
          to label %47 unwind label %69

47:                                               ; preds = %46
  invoke void @_ZN5osgeo4proj9operation10Conversion6createERKNS0_4util11PropertyMapEiRKSt6vectorIN7dropbox6oxygen2nnISt10shared_ptrINS1_14ParameterValueEEEESaISE_EE(ptr dead_on_unwind writable sret(%"class.dropbox::oxygen::nn.42") align 8 %0, ptr noundef nonnull align 8 dereferenceable(8) %11, i32 noundef 9807, ptr noundef nonnull align 8 dereferenceable(24) %12)
          to label %48 unwind label %73

48:                                               ; preds = %47
  call void @_ZN5osgeo4proj9operation14VectorOfValuesD1Ev(ptr noundef nonnull align 8 dereferenceable(24) %12) #24
  call void @_ZN5osgeo4proj6common6LengthD1Ev(ptr noundef nonnull align 8 dereferenceable(24) %17) #24
  call void @llvm.lifetime.end.p0(i64 24, ptr %17) #24
  call void @_ZN5osgeo4proj6common6LengthD1Ev(ptr noundef nonnull align 8 dereferenceable(24) %16) #24
  call void @llvm.lifetime.end.p0(i64 24, ptr %16) #24
  call void @_ZN5osgeo4proj6common5ScaleD1Ev(ptr noundef nonnull align 8 dereferenceable(24) %15) #24
  call void @llvm.lifetime.end.p0(i64 24, ptr %15) #24
  call void @_ZN5osgeo4proj6common5AngleD1Ev(ptr noundef nonnull align 8 dereferenceable(24) %14) #24
  call void @llvm.lifetime.end.p0(i64 24, ptr %14) #24
  call void @_ZN5osgeo4proj6common5AngleD1Ev(ptr noundef nonnull align 8 dereferenceable(24) %13) #24
  call void @llvm.lifetime.end.p0(i64 24, ptr %13) #24
  call void @llvm.lifetime.end.p0(i64 24, ptr %12) #24
  call void @_ZN5osgeo4proj4util11PropertyMapD1Ev(ptr noundef nonnull align 8 dereferenceable(8) %11) #24
  call void @llvm.lifetime.end.p0(i64 8, ptr %11) #24
  ret void

49:                                               ; preds = %31
  %50 = landingpad { ptr, i32 }
          cleanup
  %51 = extractvalue { ptr, i32 } %50, 0
  store ptr %51, ptr %9, align 8
  %52 = extractvalue { ptr, i32 } %50, 1
  store i32 %52, ptr %10, align 4
  br label %82

53:                                               ; preds = %36
  %54 = landingpad { ptr, i32 }
          cleanup
  %55 = extractvalue { ptr, i32 } %54, 0
  store ptr %55, ptr %9, align 8
  %56 = extractvalue { ptr, i32 } %54, 1
  store i32 %56, ptr %10, align 4
  br label %81

57:                                               ; preds = %40
  %58 = landingpad { ptr, i32 }
          cleanup
  %59 = extractvalue { ptr, i32 } %58, 0
  store ptr %59, ptr %9, align 8
  %60 = extractvalue { ptr, i32 } %58, 1
  store i32 %60, ptr %10, align 4
  br label %80

61:                                               ; preds = %41
  %62 = landingpad { ptr, i32 }
          cleanup
  %63 = extractvalue { ptr, i32 } %62, 0
  store ptr %63, ptr %9, align 8
  %64 = extractvalue { ptr, i32 } %62, 1
  store i32 %64, ptr %10, align 4
  br label %79

65:                                               ; preds = %42
  %66 = landingpad { ptr, i32 }
          cleanup
  %67 = extractvalue { ptr, i32 } %66, 0
  store ptr %67, ptr %9, align 8
  %68 = extractvalue { ptr, i32 } %66, 1
  store i32 %68, ptr %10, align 4
  br label %78

69:                                               ; preds = %46
  %70 = landingpad { ptr, i32 }
          cleanup
  %71 = extractvalue { ptr, i32 } %70, 0
  store ptr %71, ptr %9, align 8
  %72 = extractvalue { ptr, i32 } %70, 1
  store i32 %72, ptr %10, align 4
  br label %77

73:                                               ; preds = %47
  %74 = landingpad { ptr, i32 }
          cleanup
  %75 = extractvalue { ptr, i32 } %74, 0
  store ptr %75, ptr %9, align 8
  %76 = extractvalue { ptr, i32 } %74, 1
  store i32 %76, ptr %10, align 4
  call void @_ZN5osgeo4proj9operation14VectorOfValuesD1Ev(ptr noundef nonnull align 8 dereferenceable(24) %12) #24
  br label %77

77:                                               ; preds = %73, %69
  call void @_ZN5osgeo4proj6common6LengthD1Ev(ptr noundef nonnull align 8 dereferenceable(24) %17) #24
  br label %78

78:                                               ; preds = %77, %65
  call void @llvm.lifetime.end.p0(i64 24, ptr %17) #24
  call void @_ZN5osgeo4proj6common6LengthD1Ev(ptr noundef nonnull align 8 dereferenceable(24) %16) #24
  br label %79

79:                                               ; preds = %78, %61
  call void @llvm.lifetime.end.p0(i64 24, ptr %16) #24
  call void @_ZN5osgeo4proj6common5ScaleD1Ev(ptr noundef nonnull align 8 dereferenceable(24) %15) #24
  br label %80

80:                                               ; preds = %79, %57
  call void @llvm.lifetime.end.p0(i64 24, ptr %15) #24
  call void @_ZN5osgeo4proj6common5AngleD1Ev(ptr noundef nonnull align 8 dereferenceable(24) %14) #24
  br label %81

81:                                               ; preds = %80, %53
  call void @llvm.lifetime.end.p0(i64 24, ptr %14) #24
  call void @_ZN5osgeo4proj6common5AngleD1Ev(ptr noundef nonnull align 8 dereferenceable(24) %13) #24
  br label %82

82:                                               ; preds = %81, %49
  call void @llvm.lifetime.end.p0(i64 24, ptr %13) #24
  call void @llvm.lifetime.end.p0(i64 24, ptr %12) #24
  call void @_ZN5osgeo4proj4util11PropertyMapD1Ev(ptr noundef nonnull align 8 dereferenceable(8) %11) #24
  call void @llvm.lifetime.end.p0(i64 8, ptr %11) #24
  br label %83

83:                                               ; preds = %82, %27
  %84 = load ptr, ptr %9, align 8
  %85 = load i32, ptr %10, align 4
  %86 = insertvalue { ptr, i32 } poison, ptr %84, 0
  %87 = insertvalue { ptr, i32 } %86, i32 %85, 1
  resume { ptr, i32 } %87
}