; Function Attrs: mustprogress uwtable
define void @_ZN5osgeo4proj9operation10Conversion9createUTMERKNS0_4util11PropertyMapEib(ptr dead_on_unwind noalias writable sret(%"class.dropbox::oxygen::nn.42") align 8 %0, ptr noundef nonnull align 8 dereferenceable(8) %1, i32 noundef %2, i1 noundef zeroext %3) local_unnamed_addr #0 align 2 personality ptr @__gxx_personality_v0 {
  %5 = alloca %"class.osgeo::proj::util::PropertyMap", align 8
  %6 = alloca %"struct.osgeo::proj::operation::VectorOfValues", align 8
  %7 = alloca %"class.osgeo::proj::common::Angle", align 8
  %8 = alloca %"class.osgeo::proj::common::Angle", align 8
  %9 = alloca %"class.osgeo::proj::common::Scale", align 8
  %10 = alloca %"class.osgeo::proj::common::Length", align 8
  %11 = alloca %"class.osgeo::proj::common::Length", align 8
  %12 = add i32 %2, -61
  %or.cond = icmp ult i32 %12, -60
  br i1 %or.cond, label %13, label %18

13:                                               ; preds = %4
  %14 = tail call ptr @__cxa_allocate_exception(i64 40) #32
  invoke void @_ZN5osgeo4proj9operation16InvalidOperationC1EPKc(ptr noundef nonnull align 8 dereferenceable(40) %14, ptr noundef nonnull @.str.2)
          to label %15 unwind label %16

15:                                               ; preds = %13
  tail call void @__cxa_throw(ptr nonnull %14, ptr nonnull @_ZTIN5osgeo4proj9operation16InvalidOperationE, ptr nonnull @_ZN5osgeo4proj9operation16InvalidOperationD1Ev) #34
  unreachable

16:                                               ; preds = %13
  %17 = landingpad { ptr, i32 }
          cleanup
  tail call void @__cxa_free_exception(ptr nonnull %14) #32
  br label %49

18:                                               ; preds = %4
  call void @llvm.lifetime.start.p0(i64 8, ptr nonnull %5) #32
  call fastcc void @_ZN5osgeo4proj9operationL24getUTMConversionPropertyERKNS0_4util11PropertyMapEib(ptr dead_on_unwind noalias writable align 8 %5, ptr noundef nonnull align 8 dereferenceable(8) %1, i32 noundef %2, i1 noundef zeroext %3)
  call void @llvm.lifetime.start.p0(i64 24, ptr nonnull %6) #32
  call void @llvm.lifetime.start.p0(i64 24, ptr nonnull %7) #32
  invoke void @_ZN5osgeo4proj6common5AngleC1Ed(ptr noundef nonnull align 8 dereferenceable(24) %7, double noundef 0.000000e+00)
          to label %19 unwind label %29

19:                                               ; preds = %18
  call void @llvm.lifetime.start.p0(i64 24, ptr nonnull %8) #32
  %20 = uitofp nneg i32 %2 to double
  %21 = call double @llvm.fmuladd.f64(double %20, double 6.000000e+00, double -1.830000e+02)
  invoke void @_ZN5osgeo4proj6common5AngleC1Ed(ptr noundef nonnull align 8 dereferenceable(24) %8, double noundef %21)
          to label %22 unwind label %31

22:                                               ; preds = %19
  call void @llvm.lifetime.start.p0(i64 24, ptr nonnull %9) #32
  invoke void @_ZN5osgeo4proj6common5ScaleC1Ed(ptr noundef nonnull align 8 dereferenceable(24) %9, double noundef 9.996000e-01)
          to label %23 unwind label %33

23:                                               ; preds = %22
  call void @llvm.lifetime.start.p0(i64 24, ptr nonnull %10) #32
  invoke void @_ZN5osgeo4proj6common6LengthC1Ed(ptr noundef nonnull align 8 dereferenceable(24) %10, double noundef 5.000000e+05)
          to label %24 unwind label %35

24:                                               ; preds = %23
  call void @llvm.lifetime.start.p0(i64 24, ptr nonnull %11) #32
  %25 = select i1 %3, double 0.000000e+00, double 1.000000e+07
  invoke void @_ZN5osgeo4proj6common6LengthC1Ed(ptr noundef nonnull align 8 dereferenceable(24) %11, double noundef %25)
          to label %26 unwind label %37

26:                                               ; preds = %24
  invoke void @_ZN5osgeo4proj9operation12createParamsERKNS0_6common7MeasureES5_S5_S5_S5_(ptr dead_on_unwind nonnull writable sret(%"struct.osgeo::proj::operation::VectorOfValues") align 8 %6, ptr noundef nonnull align 8 dereferenceable(24) %7, ptr noundef nonnull align 8 dereferenceable(24) %8, ptr noundef nonnull align 8 dereferenceable(24) %9, ptr noundef nonnull align 8 dereferenceable(24) %10, ptr noundef nonnull align 8 dereferenceable(24) %11)
          to label %27 unwind label %39

27:                                               ; preds = %26
  %28 = call noundef ptr @_ZN5osgeo4proj9operation10getMappingEi(i32 noundef 9807) #32, !noalias !100
  invoke fastcc void @_ZN5osgeo4proj9operationL16createConversionERKNS0_4util11PropertyMapEPKNS1_13MethodMappingERKSt6vectorIN7dropbox6oxygen2nnISt10shared_ptrINS1_14ParameterValueEEEESaISG_EE(ptr dead_on_unwind noalias writable align 8 %0, ptr noundef nonnull align 8 dereferenceable(8) %5, ptr noundef %28, ptr noundef nonnull readonly align 8 dereferenceable(24) %6)
          to label %_ZN5osgeo4proj9operation10Conversion6createERKNS0_4util11PropertyMapEiRKSt6vectorIN7dropbox6oxygen2nnISt10shared_ptrINS1_14ParameterValueEEEESaISE_EE.exit unwind label %41

_ZN5osgeo4proj9operation10Conversion6createERKNS0_4util11PropertyMapEiRKSt6vectorIN7dropbox6oxygen2nnISt10shared_ptrINS1_14ParameterValueEEEESaISE_EE.exit: ; preds = %27
  call void @_ZN5osgeo4proj9operation14VectorOfValuesD1Ev(ptr noundef nonnull align 8 dereferenceable(24) %6) #32
  call void @_ZN5osgeo4proj6common6LengthD1Ev(ptr noundef nonnull align 8 dereferenceable(24) %11) #32
  call void @llvm.lifetime.end.p0(i64 24, ptr nonnull %11) #32
  call void @_ZN5osgeo4proj6common6LengthD1Ev(ptr noundef nonnull align 8 dereferenceable(24) %10) #32
  call void @llvm.lifetime.end.p0(i64 24, ptr nonnull %10) #32
  call void @_ZN5osgeo4proj6common5ScaleD1Ev(ptr noundef nonnull align 8 dereferenceable(24) %9) #32
  call void @llvm.lifetime.end.p0(i64 24, ptr nonnull %9) #32
  call void @_ZN5osgeo4proj6common5AngleD1Ev(ptr noundef nonnull align 8 dereferenceable(24) %8) #32
  call void @llvm.lifetime.end.p0(i64 24, ptr nonnull %8) #32
  call void @_ZN5osgeo4proj6common5AngleD1Ev(ptr noundef nonnull align 8 dereferenceable(24) %7) #32
  call void @llvm.lifetime.end.p0(i64 24, ptr nonnull %7) #32
  call void @llvm.lifetime.end.p0(i64 24, ptr nonnull %6) #32
  call void @_ZN5osgeo4proj4util11PropertyMapD1Ev(ptr noundef nonnull align 8 dereferenceable(8) %5) #32
  call void @llvm.lifetime.end.p0(i64 8, ptr nonnull %5) #32
  ret void

29:                                               ; preds = %18
  %30 = landingpad { ptr, i32 }
          cleanup
  br label %48

31:                                               ; preds = %19
  %32 = landingpad { ptr, i32 }
          cleanup
  br label %47

33:                                               ; preds = %22
  %34 = landingpad { ptr, i32 }
          cleanup
  br label %46

35:                                               ; preds = %23
  %36 = landingpad { ptr, i32 }
          cleanup
  br label %45

37:                                               ; preds = %24
  %38 = landingpad { ptr, i32 }
          cleanup
  br label %44

39:                                               ; preds = %26
  %40 = landingpad { ptr, i32 }
          cleanup
  br label %43

41:                                               ; preds = %27
  %42 = landingpad { ptr, i32 }
          cleanup
  call void @_ZN5osgeo4proj9operation14VectorOfValuesD1Ev(ptr noundef nonnull align 8 dereferenceable(24) %6) #32
  br label %43

43:                                               ; preds = %41, %39
  %.pn = phi { ptr, i32 } [ %42, %41 ], [ %40, %39 ]
  call void @_ZN5osgeo4proj6common6LengthD1Ev(ptr noundef nonnull align 8 dereferenceable(24) %11) #32
  br label %44

44:                                               ; preds = %43, %37
  %.pn.pn = phi { ptr, i32 } [ %.pn, %43 ], [ %38, %37 ]
  call void @llvm.lifetime.end.p0(i64 24, ptr nonnull %11) #32
  call void @_ZN5osgeo4proj6common6LengthD1Ev(ptr noundef nonnull align 8 dereferenceable(24) %10) #32
  br label %45

45:                                               ; preds = %44, %35
  %.pn.pn.pn = phi { ptr, i32 } [ %.pn.pn, %44 ], [ %36, %35 ]
  call void @llvm.lifetime.end.p0(i64 24, ptr nonnull %10) #32
  call void @_ZN5osgeo4proj6common5ScaleD1Ev(ptr noundef nonnull align 8 dereferenceable(24) %9) #32
  br label %46

46:                                               ; preds = %45, %33
  %.pn.pn.pn.pn = phi { ptr, i32 } [ %.pn.pn.pn, %45 ], [ %34, %33 ]
  call void @llvm.lifetime.end.p0(i64 24, ptr nonnull %9) #32
  call void @_ZN5osgeo4proj6common5AngleD1Ev(ptr noundef nonnull align 8 dereferenceable(24) %8) #32
  br label %47

47:                                               ; preds = %46, %31
  %.pn.pn.pn.pn.pn = phi { ptr, i32 } [ %.pn.pn.pn.pn, %46 ], [ %32, %31 ]
  call void @llvm.lifetime.end.p0(i64 24, ptr nonnull %8) #32
  call void @_ZN5osgeo4proj6common5AngleD1Ev(ptr noundef nonnull align 8 dereferenceable(24) %7) #32
  br label %48

48:                                               ; preds = %47, %29
  %.pn.pn.pn.pn.pn.pn = phi { ptr, i32 } [ %.pn.pn.pn.pn.pn, %47 ], [ %30, %29 ]
  call void @llvm.lifetime.end.p0(i64 24, ptr nonnull %7) #32
  call void @llvm.lifetime.end.p0(i64 24, ptr nonnull %6) #32
  call void @_ZN5osgeo4proj4util11PropertyMapD1Ev(ptr noundef nonnull align 8 dereferenceable(8) %5) #32
  call void @llvm.lifetime.end.p0(i64 8, ptr nonnull %5) #32
  br label %49

49:                                               ; preds = %48, %16
  %.pn23 = phi { ptr, i32 } [ %17, %16 ], [ %.pn.pn.pn.pn.pn.pn, %48 ]
  resume { ptr, i32 } %.pn23
}